; Function Attrs: mustprogress nofree norecurse nosync nounwind willreturn memory(read, argmem: readwrite, inaccessiblemem: none) uwtable
define noundef i32 @H5HF_get_huge_info_test(ptr noundef readonly captures(none) %0, ptr noundef writeonly captures(address_is_null) %1, ptr noundef writeonly captures(none) %2) local_unnamed_addr #6 {
  %4 = load i8, ptr @H5HF_init_g, align 1, !tbaa !3, !range !7, !noundef !8
  %5 = trunc nuw i8 %4 to i1
  %6 = load i8, ptr @H5_libterm_g, align 1, !range !7
  %7 = trunc nuw i8 %6 to i1
  %8 = xor i1 %7, true
  %9 = select i1 %5, i1 true, i1 %8
  br i1 %9, label %10, label %17, !prof !9

10:                                               ; preds = %3
  %.not = icmp eq ptr %1, null
  %.pre = load ptr, ptr %0, align 8, !tbaa !10
  br i1 %.not, label %14, label %11

11:                                               ; preds = %10
  %12 = getelementptr inbounds nuw i8, ptr %.pre, i64 400
  %13 = load i64, ptr %12, align 8, !tbaa !75
  store i64 %13, ptr %1, align 8, !tbaa !69
  br label %14

14:                                               ; preds = %11, %10
  %15 = getelementptr inbounds nuw i8, ptr %.pre, i64 681
  %16 = load i8, ptr %15, align 1, !tbaa !76, !range !7, !noundef !8
  store i8 %16, ptr %2, align 1, !tbaa !3
  br label %17

17:                                               ; preds = %14, %3
  ret i32 0
}